target datalayout = "e-m:e-p270:32:32-p271:32:32-p272:64:64-i64:64-i128:128-f80:128-n8:16:32:64-S128"
target triple = "x86_64-pc-linux-gnu"

%struct.quic_rstream_st = type { %struct.sframe_list_st, ptr, ptr, %struct.uint_range_st, %struct.ring_buf }
%struct.sframe_list_st = type { ptr, ptr, i32, i64, i64, i32, i32 }
%struct.uint_range_st = type { i64, i64 }
%struct.ring_buf = type { ptr, i64, i64, i64 }

@.str = private unnamed_addr constant [35 x i8] c"../openssl/ssl/quic/quic_rstream.c\00", align 1
@.str.1 = private unnamed_addr constant [39 x i8] c"../openssl/include/internal/ring_buf.h\00", align 1

; Function Attrs: inlinehint nounwind uwtable
define internal void @ring_buf_destroy(ptr noundef %0, i32 noundef %1) #3 {
  %3 = alloca ptr, align 8
  %4 = alloca i32, align 4
  store ptr %0, ptr %3, align 8, !tbaa !22
  store i32 %1, ptr %4, align 4, !tbaa !28
  %5 = load i32, ptr %4, align 4, !tbaa !28
  %6 = icmp ne i32 %5, 0
  br i1 %6, label %7, label %14

7:                                                ; preds = %2
  %8 = load ptr, ptr %3, align 8, !tbaa !22
  %9 = getelementptr inbounds nuw %struct.ring_buf, ptr %8, i32 0, i32 0
  %10 = load ptr, ptr %9, align 8, !tbaa !24
  %11 = load ptr, ptr %3, align 8, !tbaa !22
  %12 = getelementptr inbounds nuw %struct.ring_buf, ptr %11, i32 0, i32 1
  %13 = load i64, ptr %12, align 8, !tbaa !25
  call void @CRYPTO_clear_free(ptr noundef %10, i64 noundef %13, ptr noundef @.str.1, i32 noundef 58)
  br label %18

14:                                               ; preds = %2
  %15 = load ptr, ptr %3, align 8, !tbaa !22
  %16 = getelementptr inbounds nuw %struct.ring_buf, ptr %15, i32 0, i32 0
  %17 = load ptr, ptr %16, align 8, !tbaa !24
  call void @CRYPTO_free(ptr noundef %17, ptr noundef @.str.1, i32 noundef 60)
  br label %18

18:                                               ; preds = %14, %7
  %19 = load ptr, ptr %3, align 8, !tbaa !22
  %20 = getelementptr inbounds nuw %struct.ring_buf, ptr %19, i32 0, i32 0
  store ptr null, ptr %20, align 8, !tbaa !24
  %21 = load ptr, ptr %3, align 8, !tbaa !22
  %22 = getelementptr inbounds nuw %struct.ring_buf, ptr %21, i32 0, i32 1
  store i64 0, ptr %22, align 8, !tbaa !25
  ret void
}

; Function Attrs: nounwind uwtable
define void @ossl_quic_rstream_free(ptr noundef %0) #0 {
  %2 = alloca ptr, align 8
  %3 = alloca i32, align 4
  %4 = alloca i32, align 4
  store ptr %0, ptr %2, align 8, !tbaa !12
  call void @llvm.lifetime.start.p0(i64 4, ptr %3) #8
  %5 = load ptr, ptr %2, align 8, !tbaa !12
  %6 = icmp eq ptr %5, null
  br i1 %6, label %7, label %8

7:                                                ; preds = %1
  store i32 1, ptr %4, align 4
  br label %19

8:                                                ; preds = %1
  %9 = load ptr, ptr %2, align 8, !tbaa !12
  %10 = getelementptr inbounds nuw %struct.quic_rstream_st, ptr %9, i32 0, i32 0
  %11 = getelementptr inbounds nuw %struct.sframe_list_st, ptr %10, i32 0, i32 6
  %12 = load i32, ptr %11, align 4, !tbaa !31
  store i32 %12, ptr %3, align 4, !tbaa !28
  %13 = load ptr, ptr %2, align 8, !tbaa !12
  %14 = getelementptr inbounds nuw %struct.quic_rstream_st, ptr %13, i32 0, i32 0
  call void @ossl_sframe_list_destroy(ptr noundef %14)
  %15 = load ptr, ptr %2, align 8, !tbaa !12
  %16 = getelementptr inbounds nuw %struct.quic_rstream_st, ptr %15, i32 0, i32 4
  %17 = load i32, ptr %3, align 4, !tbaa !28
  call void @ring_buf_destroy(ptr noundef %16, i32 noundef %17)
  %18 = load ptr, ptr %2, align 8, !tbaa !12
  call void @CRYPTO_free(ptr noundef %18, ptr noundef @.str, i32 noundef 54)
  store i32 0, ptr %4, align 4
  br label %19

19:                                               ; preds = %8, %7
  call void @llvm.lifetime.end.p0(i64 4, ptr %3) #8
  %20 = load i32, ptr %4, align 4
  switch i32 %20, label %22 [
    i32 0, label %21
    i32 1, label %21
  ]

21:                                               ; preds = %19, %19
  ret void

22:                                               ; preds = %19
  unreachable
}