; Function Attrs: nounwind uwtable
define void @ossl_quic_rstream_free(ptr noundef %0) local_unnamed_addr #0 {
  %2 = icmp eq ptr %0, null
  br i1 %2, label %12, label %3

3:                                                ; preds = %1
  %4 = getelementptr inbounds nuw i8, ptr %0, i64 44
  %5 = load i32, ptr %4, align 4, !tbaa !21
  tail call void @ossl_sframe_list_destroy(ptr noundef nonnull %0) #10
  %6 = getelementptr inbounds nuw i8, ptr %0, i64 80
  %.not.i = icmp eq i32 %5, 0
  %7 = load ptr, ptr %6, align 8, !tbaa !20
  br i1 %.not.i, label %11, label %8

8:                                                ; preds = %3
  %9 = getelementptr inbounds nuw i8, ptr %0, i64 88
  %10 = load i64, ptr %9, align 8, !tbaa !17
  tail call void @CRYPTO_clear_free(ptr noundef %7, i64 noundef %10, ptr noundef nonnull @.str.1, i32 noundef 58) #10
  br label %ring_buf_destroy.exit

11:                                               ; preds = %3
  tail call void @CRYPTO_free(ptr noundef %7, ptr noundef nonnull @.str.1, i32 noundef 60) #10
  br label %ring_buf_destroy.exit

ring_buf_destroy.exit:                            ; preds = %8, %11
  tail call void @llvm.memset.p0.i64(ptr noundef nonnull align 8 dereferenceable(16) %6, i8 0, i64 16, i1 false)
  tail call void @CRYPTO_free(ptr noundef nonnull %0, ptr noundef nonnull @.str, i32 noundef 54) #10
  br label %12

12:                                               ; preds = %1, %ring_buf_destroy.exit
  ret void
}